; Function Attrs: mustprogress uwtable
define noundef nonnull align 8 dereferenceable(64) ptr @_ZNK6icu_7721RuleBasedNumberFormat6formatElRNS_13UnicodeStringERNS_13FieldPositionE(ptr noundef nonnull align 8 dereferenceable(456) %0, i64 noundef %1, ptr noundef nonnull returned align 8 dereferenceable(64) %2, ptr nonnull readnone align 8 captures(none) %3) unnamed_addr #3 align 2 {
  %5 = alloca i32, align 4
  %6 = getelementptr inbounds nuw i8, ptr %0, i64 88
  %7 = load ptr, ptr %6, align 8, !tbaa !64
  %.not = icmp eq ptr %7, null
  br i1 %.not, label %10, label %8

8:                                                ; preds = %4
  call void @llvm.lifetime.start.p0(i64 4, ptr nonnull %5) #21
  store i32 0, ptr %5, align 4, !tbaa !19
  %9 = call noundef nonnull align 8 dereferenceable(64) ptr @_ZNK6icu_7721RuleBasedNumberFormat6formatElPNS_9NFRuleSetERNS_13UnicodeStringER10UErrorCode(ptr noundef nonnull align 8 dereferenceable(456) %0, i64 noundef %1, ptr noundef nonnull %7, ptr noundef nonnull align 8 dereferenceable(64) %2, ptr noundef nonnull align 4 dereferenceable(4) %5)
  call void @llvm.lifetime.end.p0(i64 4, ptr nonnull %5) #21
  br label %10

10:                                               ; preds = %8, %4
  ret ptr %2
}